target datalayout = "e-m:e-p270:32:32-p271:32:32-p272:64:64-i64:64-i128:128-f80:128-n8:16:32:64-S128"
target triple = "x86_64-pc-linux-gnu"

%struct.cr_record = type { ptr, ptr, i16, ptr, i16 }
%struct.node_cr_record = type { ptr, i64, i16, ptr }
%struct.part_cr_record = type { ptr, i16, i16, ptr }

; Function Attrs: nounwind uwtable
define internal void @_free_cr(ptr noundef %0) #0 {
  %2 = alloca ptr, align 8
  %3 = alloca i32, align 4
  %4 = alloca ptr, align 8
  %5 = alloca ptr, align 8
  %6 = alloca i32, align 4
  store ptr %0, ptr %2, align 8
  call void @llvm.lifetime.start.p0(i64 4, ptr %3) #8
  call void @llvm.lifetime.start.p0(i64 8, ptr %4) #8
  call void @llvm.lifetime.start.p0(i64 8, ptr %5) #8
  %7 = load ptr, ptr %2, align 8
  %8 = icmp eq ptr %7, null
  br i1 %8, label %9, label %10

9:                                                ; preds = %1
  store i32 1, ptr %6, align 4
  br label %71

10:                                               ; preds = %1
  store i32 0, ptr %3, align 4
  br label %11

11:                                               ; preds = %61, %10
  %12 = call ptr @next_node(ptr noundef %3)
  %13 = icmp ne ptr %12, null
  br i1 %13, label %14, label %64

14:                                               ; preds = %11
  %15 = load ptr, ptr %2, align 8
  %16 = getelementptr inbounds nuw %struct.cr_record, ptr %15, i32 0, i32 0
  %17 = load ptr, ptr %16, align 8
  %18 = load i32, ptr %3, align 4
  %19 = sext i32 %18 to i64
  %20 = getelementptr inbounds %struct.node_cr_record, ptr %17, i64 %19
  %21 = getelementptr inbounds nuw %struct.node_cr_record, ptr %20, i32 0, i32 0
  %22 = load ptr, ptr %21, align 8
  store ptr %22, ptr %4, align 8
  br label %23

23:                                               ; preds = %26, %14
  %24 = load ptr, ptr %4, align 8
  %25 = icmp ne ptr %24, null
  br i1 %25, label %26, label %31

26:                                               ; preds = %23
  %27 = load ptr, ptr %4, align 8
  %28 = getelementptr inbounds nuw %struct.part_cr_record, ptr %27, i32 0, i32 3
  %29 = load ptr, ptr %28, align 8
  store ptr %29, ptr %5, align 8
  call void @slurm_xfree(ptr noundef %4)
  %30 = load ptr, ptr %5, align 8
  store ptr %30, ptr %4, align 8
  br label %23, !llvm.loop !8

31:                                               ; preds = %23
  br label %32

32:                                               ; preds = %31
  %33 = load ptr, ptr %2, align 8
  %34 = getelementptr inbounds nuw %struct.cr_record, ptr %33, i32 0, i32 0
  %35 = load ptr, ptr %34, align 8
  %36 = load i32, ptr %3, align 4
  %37 = sext i32 %36 to i64
  %38 = getelementptr inbounds %struct.node_cr_record, ptr %35, i64 %37
  %39 = getelementptr inbounds nuw %struct.node_cr_record, ptr %38, i32 0, i32 3
  %40 = load ptr, ptr %39, align 8
  %41 = icmp ne ptr %40, null
  br i1 %41, label %42, label %51

42:                                               ; preds = %32
  %43 = load ptr, ptr %2, align 8
  %44 = getelementptr inbounds nuw %struct.cr_record, ptr %43, i32 0, i32 0
  %45 = load ptr, ptr %44, align 8
  %46 = load i32, ptr %3, align 4
  %47 = sext i32 %46 to i64
  %48 = getelementptr inbounds %struct.node_cr_record, ptr %45, i64 %47
  %49 = getelementptr inbounds nuw %struct.node_cr_record, ptr %48, i32 0, i32 3
  %50 = load ptr, ptr %49, align 8
  call void @slurm_list_destroy(ptr noundef %50)
  br label %51

51:                                               ; preds = %42, %32
  %52 = load ptr, ptr %2, align 8
  %53 = getelementptr inbounds nuw %struct.cr_record, ptr %52, i32 0, i32 0
  %54 = load ptr, ptr %53, align 8
  %55 = load i32, ptr %3, align 4
  %56 = sext i32 %55 to i64
  %57 = getelementptr inbounds %struct.node_cr_record, ptr %54, i64 %56
  %58 = getelementptr inbounds nuw %struct.node_cr_record, ptr %57, i32 0, i32 3
  store ptr null, ptr %58, align 8
  br label %59

59:                                               ; preds = %51
  br label %60

60:                                               ; preds = %59
  br label %61

61:                                               ; preds = %60
  %62 = load i32, ptr %3, align 4
  %63 = add nsw i32 %62, 1
  store i32 %63, ptr %3, align 4
  br label %11, !llvm.loop !11

64:                                               ; preds = %11
  %65 = load ptr, ptr %2, align 8
  %66 = getelementptr inbounds nuw %struct.cr_record, ptr %65, i32 0, i32 0
  call void @slurm_xfree(ptr noundef %66)
  %67 = load ptr, ptr %2, align 8
  %68 = getelementptr inbounds nuw %struct.cr_record, ptr %67, i32 0, i32 1
  call void @slurm_xfree(ptr noundef %68)
  %69 = load ptr, ptr %2, align 8
  %70 = getelementptr inbounds nuw %struct.cr_record, ptr %69, i32 0, i32 3
  call void @slurm_xfree(ptr noundef %70)
  call void @slurm_xfree(ptr noundef %2)
  store i32 0, ptr %6, align 4
  br label %71

71:                                               ; preds = %64, %9
  call void @llvm.lifetime.end.p0(i64 8, ptr %5) #8
  call void @llvm.lifetime.end.p0(i64 8, ptr %4) #8
  call void @llvm.lifetime.end.p0(i64 4, ptr %3) #8
  %72 = load i32, ptr %6, align 4
  switch i32 %72, label %74 [
    i32 0, label %73
    i32 1, label %73
  ]

73:                                               ; preds = %71, %71
  ret void

74:                                               ; preds = %71
  unreachable
}