; Function Attrs: nounwind uwtable
define internal fastcc void @_free_cr(ptr noundef %0) unnamed_addr #0 {
  %2 = alloca ptr, align 8
  %3 = alloca i32, align 4
  %4 = alloca ptr, align 8
  store ptr %0, ptr %2, align 8
  call void @llvm.lifetime.start.p0(i64 4, ptr nonnull %3) #11
  call void @llvm.lifetime.start.p0(i64 8, ptr nonnull %4) #11
  %5 = icmp eq ptr %0, null
  br i1 %5, label %28, label %.preheader

.preheader:                                       ; preds = %1
  store i32 0, ptr %3, align 4
  %6 = call ptr @next_node(ptr noundef nonnull %3) #11
  %.not7 = icmp eq ptr %6, null
  br i1 %.not7, label %._crit_edge9, label %.lr.ph8

.lr.ph8:                                          ; preds = %.preheader, %19
  %7 = load ptr, ptr %0, align 8
  %8 = load i32, ptr %3, align 4
  %9 = sext i32 %8 to i64
  %10 = getelementptr inbounds %struct.node_cr_record, ptr %7, i64 %9
  %11 = load ptr, ptr %10, align 8
  store ptr %11, ptr %4, align 8
  %.not35 = icmp eq ptr %11, null
  br i1 %.not35, label %._crit_edge, label %.lr.ph

.lr.ph:                                           ; preds = %.lr.ph8, %.lr.ph
  %storemerge26 = phi ptr [ %13, %.lr.ph ], [ %11, %.lr.ph8 ]
  %12 = getelementptr inbounds nuw i8, ptr %storemerge26, i64 16
  %13 = load ptr, ptr %12, align 8
  call void @slurm_xfree(ptr noundef nonnull %4) #11
  store ptr %13, ptr %4, align 8
  %.not3 = icmp eq ptr %13, null
  br i1 %.not3, label %._crit_edge.loopexit, label %.lr.ph, !llvm.loop !8

._crit_edge.loopexit:                             ; preds = %.lr.ph
  %.pre = load i32, ptr %3, align 4
  %.pre12 = load ptr, ptr %0, align 8
  %.pre13 = sext i32 %.pre to i64
  br label %._crit_edge

._crit_edge:                                      ; preds = %._crit_edge.loopexit, %.lr.ph8
  %.pre-phi = phi i64 [ %.pre13, %._crit_edge.loopexit ], [ %9, %.lr.ph8 ]
  %14 = phi ptr [ %.pre12, %._crit_edge.loopexit ], [ %7, %.lr.ph8 ]
  %15 = phi i32 [ %.pre, %._crit_edge.loopexit ], [ %8, %.lr.ph8 ]
  %16 = getelementptr inbounds %struct.node_cr_record, ptr %14, i64 %.pre-phi, i32 3
  %17 = load ptr, ptr %16, align 8
  %.not4 = icmp eq ptr %17, null
  br i1 %.not4, label %19, label %18

18:                                               ; preds = %._crit_edge
  call void @slurm_list_destroy(ptr noundef nonnull %17) #11
  %.pre10 = load ptr, ptr %0, align 8
  %.pre11 = load i32, ptr %3, align 4
  br label %19

19:                                               ; preds = %18, %._crit_edge
  %20 = phi i32 [ %.pre11, %18 ], [ %15, %._crit_edge ]
  %21 = phi ptr [ %.pre10, %18 ], [ %14, %._crit_edge ]
  %22 = sext i32 %20 to i64
  %23 = getelementptr inbounds %struct.node_cr_record, ptr %21, i64 %22, i32 3
  store ptr null, ptr %23, align 8
  %24 = add nsw i32 %20, 1
  store i32 %24, ptr %3, align 4
  %25 = call ptr @next_node(ptr noundef nonnull %3) #11
  %.not = icmp eq ptr %25, null
  br i1 %.not, label %._crit_edge9, label %.lr.ph8, !llvm.loop !11

._crit_edge9:                                     ; preds = %19, %.preheader
  call void @slurm_xfree(ptr noundef nonnull %0) #11
  %26 = getelementptr inbounds nuw i8, ptr %0, i64 8
  call void @slurm_xfree(ptr noundef nonnull %26) #11
  %27 = getelementptr inbounds nuw i8, ptr %0, i64 24
  call void @slurm_xfree(ptr noundef nonnull %27) #11
  call void @slurm_xfree(ptr noundef nonnull %2) #11
  br label %28

28:                                               ; preds = %1, %._crit_edge9
  call void @llvm.lifetime.end.p0(i64 8, ptr nonnull %4) #11
  call void @llvm.lifetime.end.p0(i64 4, ptr nonnull %3) #11
  ret void
}